target datalayout = "e-m:e-p270:32:32-p271:32:32-p272:64:64-i64:64-i128:128-f80:128-n8:16:32:64-S128"
target triple = "x86_64-pc-linux-gnu"

%"class.icu_77::UnicodeString" = type { %"class.icu_77::Replaceable", %"union.icu_77::UnicodeString::StackBufferOrFields" }
%"class.icu_77::Replaceable" = type { %"class.icu_77::UObject" }
%"class.icu_77::UObject" = type { ptr }
%"union.icu_77::UnicodeString::StackBufferOrFields" = type { %struct.anon.0, [32 x i8] }
%struct.anon.0 = type { i16, i32, i32, ptr }
%"class.icu_77::SimpleDateFormat" = type { %"class.icu_77::DateFormat", %"class.icu_77::UnicodeString", %"class.icu_77::UnicodeString", %"class.icu_77::UnicodeString", %"class.icu_77::Locale", ptr, ptr, double, i8, i8, i8, i32, ptr, ptr, i8, ptr }
%"class.icu_77::DateFormat" = type { %"class.icu_77::Format", ptr, ptr, %"class.icu_77::EnumSet", i32 }
%"class.icu_77::Format" = type { %"class.icu_77::UObject", ptr, ptr }
%"class.icu_77::EnumSet" = type { i32 }
%"class.icu_77::Locale" = type <{ %"class.icu_77::UObject", [12 x i8], [6 x i8], [4 x i8], [2 x i8], i32, [4 x i8], ptr, [157 x i8], [3 x i8], ptr, i8, [7 x i8] }>
%"class.icu_77::StringPiece" = type <{ ptr, i32, [4 x i8] }>

@.str.15 = private unnamed_addr constant [9 x i8] c"calendar\00", align 1

; Function Attrs: mustprogress uwtable
define void @_ZN6icu_7716SimpleDateFormat24initializeDefaultCenturyEv(ptr noundef nonnull align 8 dereferenceable(528) %0) #1 align 2 {
  %2 = alloca ptr, align 8
  store ptr %0, ptr %2, align 8, !tbaa !23
  %3 = load ptr, ptr %2, align 8
  %4 = getelementptr inbounds nuw %"class.icu_77::DateFormat", ptr %3, i32 0, i32 1
  %5 = load ptr, ptr %4, align 8, !tbaa !79
  %6 = icmp ne ptr %5, null
  br i1 %6, label %7, label %37

7:                                                ; preds = %1
  %8 = getelementptr inbounds nuw %"class.icu_77::DateFormat", ptr %3, i32 0, i32 1
  %9 = load ptr, ptr %8, align 8, !tbaa !79
  %10 = load ptr, ptr %9, align 8, !tbaa !63
  %11 = getelementptr inbounds ptr, ptr %10, i64 51
  %12 = load ptr, ptr %11, align 8
  %13 = call noundef signext i8 %12(ptr noundef nonnull align 8 dereferenceable(192) %9)
  %14 = getelementptr inbounds nuw %"class.icu_77::SimpleDateFormat", ptr %3, i32 0, i32 14
  store i8 %13, ptr %14, align 8, !tbaa !86
  %15 = getelementptr inbounds nuw %"class.icu_77::SimpleDateFormat", ptr %3, i32 0, i32 14
  %16 = load i8, ptr %15, align 8, !tbaa !86
  %17 = icmp ne i8 %16, 0
  br i1 %17, label %18, label %33

18:                                               ; preds = %7
  %19 = getelementptr inbounds nuw %"class.icu_77::DateFormat", ptr %3, i32 0, i32 1
  %20 = load ptr, ptr %19, align 8, !tbaa !79
  %21 = load ptr, ptr %20, align 8, !tbaa !63
  %22 = getelementptr inbounds ptr, ptr %21, i64 52
  %23 = load ptr, ptr %22, align 8
  %24 = call noundef double %23(ptr noundef nonnull align 8 dereferenceable(192) %20)
  %25 = getelementptr inbounds nuw %"class.icu_77::SimpleDateFormat", ptr %3, i32 0, i32 7
  store double %24, ptr %25, align 8, !tbaa !87
  %26 = getelementptr inbounds nuw %"class.icu_77::DateFormat", ptr %3, i32 0, i32 1
  %27 = load ptr, ptr %26, align 8, !tbaa !79
  %28 = load ptr, ptr %27, align 8, !tbaa !63
  %29 = getelementptr inbounds ptr, ptr %28, i64 53
  %30 = load ptr, ptr %29, align 8
  %31 = call noundef i32 %30(ptr noundef nonnull align 8 dereferenceable(192) %27)
  %32 = getelementptr inbounds nuw %"class.icu_77::SimpleDateFormat", ptr %3, i32 0, i32 11
  store i32 %31, ptr %32, align 4, !tbaa !88
  br label %36

33:                                               ; preds = %7
  %34 = getelementptr inbounds nuw %"class.icu_77::SimpleDateFormat", ptr %3, i32 0, i32 7
  store double 0x10000000000000, ptr %34, align 8, !tbaa !87
  %35 = getelementptr inbounds nuw %"class.icu_77::SimpleDateFormat", ptr %3, i32 0, i32 11
  store i32 -1, ptr %35, align 4, !tbaa !88
  br label %36

36:                                               ; preds = %33, %18
  br label %37

37:                                               ; preds = %36, %1
  ret void
}

; Function Attrs: inlinehint mustprogress nounwind uwtable
define internal noundef signext i8 @_ZL9U_FAILURE10UErrorCode(i32 noundef %0) #2 {
  %2 = alloca i32, align 4
  store i32 %0, ptr %2, align 4, !tbaa !15
  %3 = load i32, ptr %2, align 4, !tbaa !15
  %4 = icmp sgt i32 %3, 0
  %5 = zext i1 %4 to i8
  ret i8 %5
}

; Function Attrs: mustprogress uwtable
define linkonce_odr void @_ZN6icu_776Locale15setKeywordValueEPKcS2_R10UErrorCode(ptr noundef nonnull align 8 dereferenceable(217) %0, ptr noundef %1, ptr noundef %2, ptr noundef nonnull align 4 dereferenceable(4) %3) #1 comdat align 2 {
  %5 = alloca ptr, align 8
  %6 = alloca ptr, align 8
  %7 = alloca ptr, align 8
  %8 = alloca ptr, align 8
  %9 = alloca %"class.icu_77::StringPiece", align 8
  %10 = alloca %"class.icu_77::StringPiece", align 8
  store ptr %0, ptr %5, align 8, !tbaa !77
  store ptr %1, ptr %6, align 8, !tbaa !17
  store ptr %2, ptr %7, align 8, !tbaa !17
  store ptr %3, ptr %8, align 8, !tbaa !22
  %11 = load ptr, ptr %5, align 8
  %12 = load ptr, ptr %6, align 8, !tbaa !17
  call void @_ZN6icu_7711StringPieceC1EPKc(ptr noundef nonnull align 8 dereferenceable(12) %9, ptr noundef %12)
  %13 = load ptr, ptr %7, align 8, !tbaa !17
  call void @_ZN6icu_7711StringPieceC1EPKc(ptr noundef nonnull align 8 dereferenceable(12) %10, ptr noundef %13)
  %14 = load ptr, ptr %8, align 8, !tbaa !22
  %15 = getelementptr inbounds nuw { ptr, i32 }, ptr %9, i32 0, i32 0
  %16 = load ptr, ptr %15, align 8
  %17 = getelementptr inbounds nuw { ptr, i32 }, ptr %9, i32 0, i32 1
  %18 = load i32, ptr %17, align 8
  %19 = getelementptr inbounds nuw { ptr, i32 }, ptr %10, i32 0, i32 0
  %20 = load ptr, ptr %19, align 8
  %21 = getelementptr inbounds nuw { ptr, i32 }, ptr %10, i32 0, i32 1
  %22 = load i32, ptr %21, align 8
  call void @_ZN6icu_776Locale15setKeywordValueENS_11StringPieceES1_R10UErrorCode(ptr noundef nonnull align 8 dereferenceable(217) %11, ptr %16, i32 %18, ptr %20, i32 %22, ptr noundef nonnull align 4 dereferenceable(4) %14)
  ret void
}

; Function Attrs: mustprogress uwtable
define void @_ZN6icu_7716SimpleDateFormat13adoptCalendarEPNS_8CalendarE(ptr noundef nonnull align 8 dereferenceable(528) %0, ptr noundef %1) unnamed_addr #1 align 2 personality ptr @__gxx_personality_v0 {
  %3 = alloca ptr, align 8
  %4 = alloca ptr, align 8
  %5 = alloca i32, align 4
  %6 = alloca %"class.icu_77::Locale", align 8
  %7 = alloca ptr, align 8
  %8 = alloca i32, align 4
  %9 = alloca ptr, align 8
  %10 = alloca i32, align 4
  store ptr %0, ptr %3, align 8, !tbaa !23
  store ptr %1, ptr %4, align 8, !tbaa !150
  %11 = load ptr, ptr %3, align 8
  call void @llvm.lifetime.start.p0(i64 4, ptr %5) #12
  store i32 0, ptr %5, align 4, !tbaa !15
  call void @llvm.lifetime.start.p0(i64 224, ptr %6) #12
  %12 = getelementptr inbounds nuw %"class.icu_77::SimpleDateFormat", ptr %11, i32 0, i32 4
  call void @_ZN6icu_776LocaleC1ERKS0_(ptr noundef nonnull align 8 dereferenceable(217) %6, ptr noundef nonnull align 8 dereferenceable(217) %12)
  %13 = load ptr, ptr %4, align 8, !tbaa !150
  %14 = load ptr, ptr %13, align 8, !tbaa !63
  %15 = getelementptr inbounds ptr, ptr %14, i64 23
  %16 = load ptr, ptr %15, align 8
  %17 = invoke noundef ptr %16(ptr noundef nonnull align 8 dereferenceable(192) %13)
          to label %18 unwind label %34

18:                                               ; preds = %2
  invoke void @_ZN6icu_776Locale15setKeywordValueEPKcS2_R10UErrorCode(ptr noundef nonnull align 8 dereferenceable(217) %6, ptr noundef @.str.15, ptr noundef %17, ptr noundef nonnull align 4 dereferenceable(4) %5)
          to label %19 unwind label %34

19:                                               ; preds = %18
  call void @llvm.lifetime.start.p0(i64 8, ptr %9) #12
  %20 = invoke noundef ptr @_ZN6icu_7717DateFormatSymbols15createForLocaleERKNS_6LocaleER10UErrorCode(ptr noundef nonnull align 8 dereferenceable(217) %6, ptr noundef nonnull align 4 dereferenceable(4) %5)
          to label %21 unwind label %38

21:                                               ; preds = %19
  store ptr %20, ptr %9, align 8, !tbaa !97
  %22 = load i32, ptr %5, align 4, !tbaa !15
  %23 = invoke noundef signext i8 @_ZL9U_FAILURE10UErrorCode(i32 noundef %22)
          to label %24 unwind label %38

24:                                               ; preds = %21
  %25 = icmp ne i8 %23, 0
  br i1 %25, label %26, label %42

26:                                               ; preds = %24
  %27 = load ptr, ptr %4, align 8, !tbaa !150
  %28 = icmp eq ptr %27, null
  br i1 %28, label %33, label %29

29:                                               ; preds = %26
  %30 = load ptr, ptr %27, align 8, !tbaa !63
  %31 = getelementptr inbounds ptr, ptr %30, i64 1
  %32 = load ptr, ptr %31, align 8
  call void %32(ptr noundef nonnull align 8 dereferenceable(192) %27) #12
  br label %33

33:                                               ; preds = %29, %26
  store i32 1, ptr %10, align 4
  br label %53

34:                                               ; preds = %18, %2
  %35 = landingpad { ptr, i32 }
          cleanup
  %36 = extractvalue { ptr, i32 } %35, 0
  store ptr %36, ptr %7, align 8
  %37 = extractvalue { ptr, i32 } %35, 1
  store i32 %37, ptr %8, align 4
  br label %56

38:                                               ; preds = %49, %42, %21, %19
  %39 = landingpad { ptr, i32 }
          cleanup
  %40 = extractvalue { ptr, i32 } %39, 0
  store ptr %40, ptr %7, align 8
  %41 = extractvalue { ptr, i32 } %39, 1
  store i32 %41, ptr %8, align 4
  call void @llvm.lifetime.end.p0(i64 8, ptr %9) #12
  br label %56

42:                                               ; preds = %24
  %43 = load ptr, ptr %4, align 8, !tbaa !150
  invoke void @_ZN6icu_7710DateFormat13adoptCalendarEPNS_8CalendarE(ptr noundef nonnull align 8 dereferenceable(48) %11, ptr noundef %43)
          to label %44 unwind label %38

44:                                               ; preds = %42
  %45 = getelementptr inbounds nuw %"class.icu_77::SimpleDateFormat", ptr %11, i32 0, i32 5
  %46 = load ptr, ptr %45, align 8, !tbaa !65
  %47 = icmp eq ptr %46, null
  br i1 %47, label %49, label %48

48:                                               ; preds = %44
  call void @_ZN6icu_7717DateFormatSymbolsD1Ev(ptr noundef nonnull align 8 dereferenceable(976) %46) #12
  call void @_ZN6icu_777UMemorydlEPv(ptr noundef %46) #12
  br label %49

49:                                               ; preds = %48, %44
  %50 = load ptr, ptr %9, align 8, !tbaa !97
  %51 = getelementptr inbounds nuw %"class.icu_77::SimpleDateFormat", ptr %11, i32 0, i32 5
  store ptr %50, ptr %51, align 8, !tbaa !65
  invoke void @_ZN6icu_7716SimpleDateFormat24initializeDefaultCenturyEv(ptr noundef nonnull align 8 dereferenceable(528) %11)
          to label %52 unwind label %38

52:                                               ; preds = %49
  store i32 0, ptr %10, align 4
  br label %53

53:                                               ; preds = %52, %33
  call void @llvm.lifetime.end.p0(i64 8, ptr %9) #12
  call void @_ZN6icu_776LocaleD1Ev(ptr noundef nonnull align 8 dereferenceable(217) %6) #12
  call void @llvm.lifetime.end.p0(i64 224, ptr %6) #12
  call void @llvm.lifetime.end.p0(i64 4, ptr %5) #12
  %54 = load i32, ptr %10, align 4
  switch i32 %54, label %62 [
    i32 0, label %55
    i32 1, label %55
  ]

55:                                               ; preds = %53, %53
  ret void

56:                                               ; preds = %38, %34
  call void @_ZN6icu_776LocaleD1Ev(ptr noundef nonnull align 8 dereferenceable(217) %6) #12
  call void @llvm.lifetime.end.p0(i64 224, ptr %6) #12
  call void @llvm.lifetime.end.p0(i64 4, ptr %5) #12
  br label %57

57:                                               ; preds = %56
  %58 = load ptr, ptr %7, align 8
  %59 = load i32, ptr %8, align 4
  %60 = insertvalue { ptr, i32 } poison, ptr %58, 0
  %61 = insertvalue { ptr, i32 } %60, i32 %59, 1
  resume { ptr, i32 } %61

62:                                               ; preds = %53
  unreachable
}