; Function Attrs: mustprogress uwtable
define void @_ZN6icu_7716SimpleDateFormat13adoptCalendarEPNS_8CalendarE(ptr noundef nonnull align 8 dereferenceable(528) %0, ptr noundef %1) unnamed_addr #1 align 2 personality ptr @__gxx_personality_v0 {
  %3 = alloca %"class.icu_77::StringPiece", align 8
  %4 = alloca %"class.icu_77::StringPiece", align 8
  %5 = alloca i32, align 4
  %6 = alloca %"class.icu_77::Locale", align 8
  call void @llvm.lifetime.start.p0(i64 4, ptr nonnull %5) #23
  store i32 0, ptr %5, align 4, !tbaa !13
  call void @llvm.lifetime.start.p0(i64 224, ptr nonnull %6) #23
  %7 = getelementptr inbounds nuw i8, ptr %0, i64 240
  call void @_ZN6icu_776LocaleC1ERKS0_(ptr noundef nonnull align 8 dereferenceable(217) %6, ptr noundef nonnull align 8 dereferenceable(217) %7)
  %8 = load ptr, ptr %1, align 8, !tbaa !44
  %9 = getelementptr inbounds nuw i8, ptr %8, i64 184
  %10 = load ptr, ptr %9, align 8
  %11 = invoke noundef ptr %10(ptr noundef nonnull align 8 dereferenceable(192) %1)
          to label %12 unwind label %28

12:                                               ; preds = %2
  call void @llvm.lifetime.start.p0(i64 16, ptr nonnull %3)
  call void @llvm.lifetime.start.p0(i64 16, ptr nonnull %4)
  invoke void @_ZN6icu_7711StringPieceC1EPKc(ptr noundef nonnull align 8 dereferenceable(12) %3, ptr noundef nonnull @.str.15)
          to label %.noexc unwind label %28

.noexc:                                           ; preds = %12
  invoke void @_ZN6icu_7711StringPieceC1EPKc(ptr noundef nonnull align 8 dereferenceable(12) %4, ptr noundef %11)
          to label %.noexc9 unwind label %28

.noexc9:                                          ; preds = %.noexc
  %13 = load ptr, ptr %3, align 8
  %14 = getelementptr inbounds nuw i8, ptr %3, i64 8
  %15 = load i32, ptr %14, align 8
  %16 = load ptr, ptr %4, align 8
  %17 = getelementptr inbounds nuw i8, ptr %4, i64 8
  %18 = load i32, ptr %17, align 8
  invoke void @_ZN6icu_776Locale15setKeywordValueENS_11StringPieceES1_R10UErrorCode(ptr noundef nonnull align 8 dereferenceable(217) %6, ptr %13, i32 %15, ptr %16, i32 %18, ptr noundef nonnull align 4 dereferenceable(4) %5)
          to label %19 unwind label %28

19:                                               ; preds = %.noexc9
  call void @llvm.lifetime.end.p0(i64 16, ptr nonnull %3)
  call void @llvm.lifetime.end.p0(i64 16, ptr nonnull %4)
  %20 = invoke noundef ptr @_ZN6icu_7717DateFormatSymbols15createForLocaleERKNS_6LocaleER10UErrorCode(ptr noundef nonnull align 8 dereferenceable(217) %6, ptr noundef nonnull align 4 dereferenceable(4) %5)
          to label %21 unwind label %30

21:                                               ; preds = %19
  %22 = load i32, ptr %5, align 4, !tbaa !13
  %23 = icmp slt i32 %22, 1
  br i1 %23, label %32, label %24

24:                                               ; preds = %21
  %25 = load ptr, ptr %1, align 8, !tbaa !44
  %26 = getelementptr inbounds nuw i8, ptr %25, i64 8
  %27 = load ptr, ptr %26, align 8
  call void %27(ptr noundef nonnull align 8 dereferenceable(192) %1) #23
  br label %_ZN6icu_7716SimpleDateFormat24initializeDefaultCenturyEv.exit

28:                                               ; preds = %.noexc9, %.noexc, %12, %2
  %29 = landingpad { ptr, i32 }
          cleanup
  br label %62

30:                                               ; preds = %.noexc12, %47, %41, %32, %19
  %31 = landingpad { ptr, i32 }
          cleanup
  br label %62

32:                                               ; preds = %21
  invoke void @_ZN6icu_7710DateFormat13adoptCalendarEPNS_8CalendarE(ptr noundef nonnull align 8 dereferenceable(48) %0, ptr noundef nonnull %1)
          to label %33 unwind label %30

33:                                               ; preds = %32
  %34 = getelementptr inbounds nuw i8, ptr %0, i64 464
  %35 = load ptr, ptr %34, align 8, !tbaa !46
  %36 = icmp eq ptr %35, null
  br i1 %36, label %38, label %37

37:                                               ; preds = %33
  call void @_ZN6icu_7717DateFormatSymbolsD1Ev(ptr noundef nonnull align 8 dereferenceable(976) %35) #23
  call void @_ZN6icu_777UMemorydlEPv(ptr noundef nonnull %35) #23
  br label %38

38:                                               ; preds = %37, %33
  store ptr %20, ptr %34, align 8, !tbaa !46
  %39 = getelementptr inbounds nuw i8, ptr %0, i64 24
  %40 = load ptr, ptr %39, align 8, !tbaa !52
  %.not.i = icmp eq ptr %40, null
  br i1 %.not.i, label %_ZN6icu_7716SimpleDateFormat24initializeDefaultCenturyEv.exit, label %41

41:                                               ; preds = %38
  %42 = load ptr, ptr %40, align 8, !tbaa !44
  %43 = getelementptr inbounds nuw i8, ptr %42, i64 408
  %44 = load ptr, ptr %43, align 8
  %45 = invoke noundef signext i8 %44(ptr noundef nonnull align 8 dereferenceable(192) %40)
          to label %.noexc11 unwind label %30

.noexc11:                                         ; preds = %41
  %46 = getelementptr inbounds nuw i8, ptr %0, i64 512
  store i8 %45, ptr %46, align 8, !tbaa !53
  %.not1.i = icmp eq i8 %45, 0
  br i1 %.not1.i, label %59, label %47

47:                                               ; preds = %.noexc11
  %48 = load ptr, ptr %39, align 8, !tbaa !52
  %49 = load ptr, ptr %48, align 8, !tbaa !44
  %50 = getelementptr inbounds nuw i8, ptr %49, i64 416
  %51 = load ptr, ptr %50, align 8
  %52 = invoke noundef double %51(ptr noundef nonnull align 8 dereferenceable(192) %48)
          to label %.noexc12 unwind label %30

.noexc12:                                         ; preds = %47
  %53 = getelementptr inbounds nuw i8, ptr %0, i64 480
  store double %52, ptr %53, align 8, !tbaa !54
  %54 = load ptr, ptr %39, align 8, !tbaa !52
  %55 = load ptr, ptr %54, align 8, !tbaa !44
  %56 = getelementptr inbounds nuw i8, ptr %55, i64 424
  %57 = load ptr, ptr %56, align 8
  %58 = invoke noundef i32 %57(ptr noundef nonnull align 8 dereferenceable(192) %54)
          to label %.sink.split.i unwind label %30

59:                                               ; preds = %.noexc11
  %60 = getelementptr inbounds nuw i8, ptr %0, i64 480
  store double 0x10000000000000, ptr %60, align 8, !tbaa !54
  br label %.sink.split.i

.sink.split.i:                                    ; preds = %.noexc12, %59
  %.sink.i = phi i32 [ -1, %59 ], [ %58, %.noexc12 ]
  %61 = getelementptr inbounds nuw i8, ptr %0, i64 492
  store i32 %.sink.i, ptr %61, align 4, !tbaa !55
  br label %_ZN6icu_7716SimpleDateFormat24initializeDefaultCenturyEv.exit

_ZN6icu_7716SimpleDateFormat24initializeDefaultCenturyEv.exit: ; preds = %.sink.split.i, %38, %24
  call void @_ZN6icu_776LocaleD1Ev(ptr noundef nonnull align 8 dereferenceable(217) %6) #23
  call void @llvm.lifetime.end.p0(i64 224, ptr nonnull %6) #23
  call void @llvm.lifetime.end.p0(i64 4, ptr nonnull %5) #23
  ret void

62:                                               ; preds = %30, %28
  %.pn = phi { ptr, i32 } [ %31, %30 ], [ %29, %28 ]
  call void @_ZN6icu_776LocaleD1Ev(ptr noundef nonnull align 8 dereferenceable(217) %6) #23
  call void @llvm.lifetime.end.p0(i64 224, ptr nonnull %6) #23
  call void @llvm.lifetime.end.p0(i64 4, ptr nonnull %5) #23
  resume { ptr, i32 } %.pn
}